Certificate:
    Data:
        Version: 1 (0x0)
        Serial Number: 64206 (0xface)
    Signature Algorithm: md5WithRSAEncryption
        Issuer: C=cn, ST=Guangdong, L=Shenzhen, O=SSCC, OU=iee, CN=192.167.72.245/emailAddress=zuolj@mail2.sysu.edu.cn
        Validity
            Not Before: Aug 25 06:29:37 2015 GMT
            Not After : Aug 24 06:29:37 2016 GMT
        Subject: C=cn, ST=Guangdong, O=SSCC, OU=iee, L=Shenzhen, CN=192.167.72.245/emailAddress=zuolj@mail2.sysu.edu.cn
        Subject Public Key Info:
            Public Key Algorithm: rsaEncryption
                Public-Key: (1024 bit)
                Modulus:
                    00:a6:6c:50:cb:f0:6a:dd:4e:7f:d2:35:1e:f5:0e:
                    56:10:ac:dd:8c:2b:80:b7:6f:3c:b3:8c:ea:f4:ef:
                    a7:08:85:5f:6c:c8:69:ff:db:ae:4f:44:a9:c3:b3:
                    45:40:7a:0a:62:8b:a0:75:e3:11:de:b8:2c:03:47:
                    f7:f7:6d:7c:21:8b:18:51:9b:46:04:3c:f9:b4:4c:
                    5f:82:37:96:80:a4:3d:0e:36:7e:8b:1a:99:06:4e:
                    0d:24:7d:75:42:14:31:61:4e:72:fc:d6:a8:2a:1d:
                    61:4f:d6:d4:0b:f6:9b:d3:05:d4:96:82:f4:f1:a9:
                    19:7a:1b:e9:2e:78:66:f7:bd
                Exponent: 65537 (0x10001)
    Signature Algorithm: md5WithRSAEncryption
         87:ee:f1:98:4f:d7:2b:55:57:fe:e0:7a:3c:53:e5:f3:65:2a:
         25:85:f7:5c:0f:a3:45:35:79:b0:07:b5:cb:25:4b:d5:05:fb:
         80:ee:28:2a:46:49:bd:ed:cc:75:c7:00:af:c0:3f:f5:82:2b:
         6a:63:81:1e:26:46:5a:ac:3d:ba:61:a9:08:c1:c8:74:c2:50:
         99:46:6b:e1:de:0d:64:5c:da:36:bf:4c:49:84:6e:b6:3e:e5:
         2a:8d:30:51:7d:f6:f9:78:29:87:ce:42:3f:21:2c:ee:0e:6e:
         93:b8:9f:3f:2c:53:79:68:76:9c:9e:a8:5c:c9:5d:ad:ca:a3:
         19:c8
-----BEGIN CERTIFICATE-----
MIIClzCCAgACAwD6zjANBgkqhkiG9w0BAQQFADCBkjELMAkGA1UEBhMCY24xEjAQ
BgNVBAgMCUd1YW5nZG9uZzERMA8GA1UEBwwIU2hlbnpoZW4xDTALBgNVBAoMBFNT
Q0MxDDAKBgNVBAsMA2llZTEXMBUGA1UEAwwOMTkyLjE2Ny43Mi4yNDUxJjAkBgkq
hkiG9w0BCQEWF3p1b2xqQG1haWwyLnN5c3UuZWR1LmNuMB4XDTE1MDgyNTA2Mjkz
N1oXDTE2MDgyNDA2MjkzN1owgZIxCzAJBgNVBAYTAmNuMRIwEAYDVQQIDAlHdWFu
Z2RvbmcxDTALBgNVBAoMBFNTQ0MxDDAKBgNVBAsMA2llZTERMA8GA1UEBwwIU2hl
bnpoZW4xFzAVBgNVBAMMDjE5Mi4xNjcuNzIuMjQ1MSYwJAYJKoZIhvcNAQkBFhd6
dW9sakBtYWlsMi5zeXN1LmVkdS5jbjCBnzANBgkqhkiG9w0BAQEFAAOBjQAwgYkC
gYEApmxQy/Bq3U5/0jUe9Q5WEKzdjCuAt288s4zq9O+nCIVfbMhp/9uuT0Spw7NF
QHoKYougdeMR3rgsA0f39218IYsYUZtGBDz5tExfgjeWgKQ9DjZ+ixqZBk4NJH11
QhQxYU5y/NaoKh1hT9bUC/ab0wXUloL08akZehvpLnhm970CAwEAATANBgkqhkiG
9w0BAQQFAAOBgQCH7vGYT9crVVf+4Ho8U+XzZSolhfdcD6NFNXmwB7XLJUvVBfuA
7igqRkm97cx1xwCvwD/1gitqY4EeJkZarD26YakIwch0wlCZRmvh3g1kXNo2v0xJ
hG62PuUqjTBRffb5eCmHzkI/ISzuDm6TuJ8/LFN5aHacnqhcyV2tyqMZyA==
-----END CERTIFICATE-----
