Certificate:
    Data:
        Version: 1 (0x0)
        Serial Number: 64207 (0xfacf)
    Signature Algorithm: md5WithRSAEncryption
        Issuer: C=cn, ST=Guangdong, L=Shenzhen, O=SSCC, OU=iee, CN=192.167.72.245/emailAddress=zuolj@mail2.sysu.edu.cn
        Validity
            Not Before: Aug 25 06:31:08 2015 GMT
            Not After : Aug 24 06:31:08 2016 GMT
        Subject: C=cn, ST=Guangdong, O=SSCC, OU=iee, L=Shenzhen, CN=192.167.72.245/emailAddress=zuolj@mail2.sysu.edu.cn
        Subject Public Key Info:
            Public Key Algorithm: rsaEncryption
                Public-Key: (1024 bit)
                Modulus:
                    00:c2:5c:8f:13:1d:64:1b:0c:2a:0a:f1:0c:1a:89:
                    94:0e:1f:13:20:76:b7:74:62:69:2e:00:9a:60:40:
                    f3:05:4d:a3:00:a4:57:72:e3:d9:f0:3e:bd:4f:54:
                    0a:34:39:23:a2:13:d0:57:87:01:67:b9:06:cc:9b:
                    2f:1f:89:2b:98:16:5d:4e:6f:27:c4:8d:99:02:d1:
                    0c:44:09:60:09:3c:58:06:2f:78:ac:b6:6e:38:6d:
                    42:16:82:68:74:2a:40:d4:bf:92:e7:c7:a6:18:6f:
                    81:a9:42:7c:32:d2:c7:dd:32:f3:d2:1c:b4:93:a2:
                    39:85:74:60:36:d0:a5:b5:3b
                Exponent: 65537 (0x10001)
    Signature Algorithm: md5WithRSAEncryption
         70:bc:4e:6d:95:44:1d:e5:3f:5c:fd:51:79:be:0f:94:07:de:
         de:56:6f:96:f0:d3:0e:3e:92:ba:0a:7d:53:cb:e7:3a:22:6c:
         a9:c4:e9:34:b8:78:c4:7d:65:87:c6:62:a3:5f:97:84:89:e7:
         69:af:67:49:f4:56:e2:86:a8:3d:e4:a0:b5:3f:d1:54:53:7b:
         e2:5c:f2:42:25:84:b7:1b:f8:09:42:d1:cf:c8:16:88:d2:ea:
         4b:fc:f4:5e:96:42:20:88:46:7f:48:6f:e2:82:e7:de:19:89:
         e3:00:e3:ab:96:55:97:64:f9:7f:cb:9d:22:dc:b1:66:9a:fe:
         6d:35
-----BEGIN CERTIFICATE-----
MIIClzCCAgACAwD6zzANBgkqhkiG9w0BAQQFADCBkjELMAkGA1UEBhMCY24xEjAQ
BgNVBAgMCUd1YW5nZG9uZzERMA8GA1UEBwwIU2hlbnpoZW4xDTALBgNVBAoMBFNT
Q0MxDDAKBgNVBAsMA2llZTEXMBUGA1UEAwwOMTkyLjE2Ny43Mi4yNDUxJjAkBgkq
hkiG9w0BCQEWF3p1b2xqQG1haWwyLnN5c3UuZWR1LmNuMB4XDTE1MDgyNTA2MzEw
OFoXDTE2MDgyNDA2MzEwOFowgZIxCzAJBgNVBAYTAmNuMRIwEAYDVQQIDAlHdWFu
Z2RvbmcxDTALBgNVBAoMBFNTQ0MxDDAKBgNVBAsMA2llZTERMA8GA1UEBwwIU2hl
bnpoZW4xFzAVBgNVBAMMDjE5Mi4xNjcuNzIuMjQ1MSYwJAYJKoZIhvcNAQkBFhd6
dW9sakBtYWlsMi5zeXN1LmVkdS5jbjCBnzANBgkqhkiG9w0BAQEFAAOBjQAwgYkC
gYEAwlyPEx1kGwwqCvEMGomUDh8TIHa3dGJpLgCaYEDzBU2jAKRXcuPZ8D69T1QK
NDkjohPQV4cBZ7kGzJsvH4krmBZdTm8nxI2ZAtEMRAlgCTxYBi94rLZuOG1CFoJo
dCpA1L+S58emGG+BqUJ8MtLH3TLz0hy0k6I5hXRgNtCltTsCAwEAATANBgkqhkiG
9w0BAQQFAAOBgQBwvE5tlUQd5T9c/VF5vg+UB97eVm+W8NMOPpK6Cn1Ty+c6Imyp
xOk0uHjEfWWHxmKjX5eEiedpr2dJ9Fbihqg95KC1P9FUU3viXPJCJYS3G/gJQtHP
yBaI0upL/PRelkIgiEZ/SG/igufeGYnjAOOrllWXZPl/y50i3LFmmv5tNQ==
-----END CERTIFICATE-----
